; Function Attrs: nounwind uwtable
define internal range(i32 0, 2) i32 @check_stream_12(ptr noundef readonly captures(none) %0) #0 {
  %2 = getelementptr inbounds nuw i8, ptr %0, i64 1128
  %3 = load i64, ptr %2, align 8, !tbaa !64
  %4 = tail call i32 @test_uint64_t_eq(ptr noundef nonnull @.str.2, i32 noundef 1024, ptr noundef nonnull @.str.146, ptr noundef nonnull @.str.147, i64 noundef %3, i64 noundef 42) #8
  %.not = icmp eq i32 %4, 0
  br i1 %.not, label %9, label %5

5:                                                ; preds = %1
  %6 = getelementptr inbounds nuw i8, ptr %0, i64 1136
  %7 = load i64, ptr %6, align 8, !tbaa !64
  %8 = tail call i32 @test_uint64_t_eq(ptr noundef nonnull @.str.2, i32 noundef 1025, ptr noundef nonnull @.str.148, ptr noundef nonnull @.str.149, i64 noundef %7, i64 noundef 4568) #8
  %.not2 = icmp ne i32 %8, 0
  %spec.select = zext i1 %.not2 to i32
  br label %9

9:                                                ; preds = %5, %1
  %.0 = phi i32 [ 0, %1 ], [ %spec.select, %5 ]
  ret i32 %.0
}